; Function Attrs: mustprogress uwtable
define hidden void @_ZN3smt11farkas_util9mk_coerceERP4exprS3_(ptr noundef nonnull readonly align 8 captures(none) dereferenceable(128) %0, ptr noundef nonnull align 8 captures(none) dereferenceable(8) %1, ptr noundef nonnull align 8 captures(none) dereferenceable(8) %2) local_unnamed_addr #3 align 2 {
  %4 = getelementptr inbounds nuw i8, ptr %0, i64 8
  %5 = load ptr, ptr %1, align 8, !tbaa !32
  %6 = tail call noundef ptr @_ZNK4expr8get_sortEv(ptr noundef nonnull align 4 dereferenceable(16) %5)
  %7 = getelementptr inbounds nuw i8, ptr %6, i64 24
  %8 = load ptr, ptr %7, align 8, !tbaa !34
  %9 = icmp eq ptr %8, null
  br i1 %9, label %_ZNK17arith_recognizers6is_intEPK4expr.exit.thread, label %_ZNK4decl13get_family_idEv.exit.thread.i.i.i.i

_ZNK4decl13get_family_idEv.exit.thread.i.i.i.i:   ; preds = %3
  %10 = load i32, ptr %8, align 8, !tbaa !40
  %11 = icmp eq i32 %10, 5
  br i1 %11, label %_ZNK17arith_recognizers6is_intEPK4expr.exit, label %_ZNK17arith_recognizers6is_intEPK4expr.exit.thread

_ZNK17arith_recognizers6is_intEPK4expr.exit:      ; preds = %_ZNK4decl13get_family_idEv.exit.thread.i.i.i.i
  %12 = getelementptr inbounds nuw i8, ptr %8, i64 4
  %13 = load i32, ptr %12, align 4, !tbaa !44
  %14 = icmp eq i32 %13, 1
  br i1 %14, label %15, label %_ZNK17arith_recognizers6is_intEPK4expr.exit.thread

15:                                               ; preds = %_ZNK17arith_recognizers6is_intEPK4expr.exit
  %16 = load ptr, ptr %2, align 8, !tbaa !32
  %17 = tail call noundef ptr @_ZNK4expr8get_sortEv(ptr noundef nonnull align 4 dereferenceable(16) %16)
  %18 = getelementptr inbounds nuw i8, ptr %17, i64 24
  %19 = load ptr, ptr %18, align 8, !tbaa !34
  %20 = icmp eq ptr %19, null
  br i1 %20, label %_ZNK17arith_recognizers6is_intEPK4expr.exit.thread, label %_ZNK4decl13get_family_idEv.exit.thread.i.i.i.i9

_ZNK4decl13get_family_idEv.exit.thread.i.i.i.i9:  ; preds = %15
  %21 = load i32, ptr %19, align 8, !tbaa !40
  %22 = icmp eq i32 %21, 5
  br i1 %22, label %_ZNK17arith_recognizers7is_realEPK4expr.exit, label %_ZNK17arith_recognizers6is_intEPK4expr.exit.thread

_ZNK17arith_recognizers7is_realEPK4expr.exit:     ; preds = %_ZNK4decl13get_family_idEv.exit.thread.i.i.i.i9
  %23 = getelementptr inbounds nuw i8, ptr %19, i64 4
  %24 = load i32, ptr %23, align 4, !tbaa !44
  %25 = icmp eq i32 %24, 0
  br i1 %25, label %_ZNK17arith_recognizers6is_intEPK4expr.exit11.thread.sink.split, label %_ZNK17arith_recognizers6is_intEPK4expr.exit.thread

_ZNK17arith_recognizers6is_intEPK4expr.exit.thread: ; preds = %15, %_ZNK4decl13get_family_idEv.exit.thread.i.i.i.i9, %3, %_ZNK4decl13get_family_idEv.exit.thread.i.i.i.i, %_ZNK17arith_recognizers7is_realEPK4expr.exit, %_ZNK17arith_recognizers6is_intEPK4expr.exit
  %26 = load ptr, ptr %2, align 8, !tbaa !32
  %27 = tail call noundef ptr @_ZNK4expr8get_sortEv(ptr noundef nonnull align 4 dereferenceable(16) %26)
  %28 = getelementptr inbounds nuw i8, ptr %27, i64 24
  %29 = load ptr, ptr %28, align 8, !tbaa !34
  %30 = icmp eq ptr %29, null
  br i1 %30, label %_ZNK17arith_recognizers6is_intEPK4expr.exit11.thread, label %_ZNK4decl13get_family_idEv.exit.thread.i.i.i.i10

_ZNK4decl13get_family_idEv.exit.thread.i.i.i.i10: ; preds = %_ZNK17arith_recognizers6is_intEPK4expr.exit.thread
  %31 = load i32, ptr %29, align 8, !tbaa !40
  %32 = icmp eq i32 %31, 5
  br i1 %32, label %_ZNK17arith_recognizers6is_intEPK4expr.exit11, label %_ZNK17arith_recognizers6is_intEPK4expr.exit11.thread

_ZNK17arith_recognizers6is_intEPK4expr.exit11:    ; preds = %_ZNK4decl13get_family_idEv.exit.thread.i.i.i.i10
  %33 = getelementptr inbounds nuw i8, ptr %29, i64 4
  %34 = load i32, ptr %33, align 4, !tbaa !44
  %35 = icmp eq i32 %34, 1
  br i1 %35, label %36, label %_ZNK17arith_recognizers6is_intEPK4expr.exit11.thread

36:                                               ; preds = %_ZNK17arith_recognizers6is_intEPK4expr.exit11
  %37 = load ptr, ptr %1, align 8, !tbaa !32
  %38 = tail call noundef ptr @_ZNK4expr8get_sortEv(ptr noundef nonnull align 4 dereferenceable(16) %37)
  %39 = getelementptr inbounds nuw i8, ptr %38, i64 24
  %40 = load ptr, ptr %39, align 8, !tbaa !34
  %41 = icmp eq ptr %40, null
  br i1 %41, label %_ZNK17arith_recognizers6is_intEPK4expr.exit11.thread, label %_ZNK4decl13get_family_idEv.exit.thread.i.i.i.i12

_ZNK4decl13get_family_idEv.exit.thread.i.i.i.i12: ; preds = %36
  %42 = load i32, ptr %40, align 8, !tbaa !40
  %43 = icmp eq i32 %42, 5
  br i1 %43, label %_ZNK17arith_recognizers7is_realEPK4expr.exit13, label %_ZNK17arith_recognizers6is_intEPK4expr.exit11.thread

_ZNK17arith_recognizers7is_realEPK4expr.exit13:   ; preds = %_ZNK4decl13get_family_idEv.exit.thread.i.i.i.i12
  %44 = getelementptr inbounds nuw i8, ptr %40, i64 4
  %45 = load i32, ptr %44, align 4, !tbaa !44
  %46 = icmp eq i32 %45, 0
  br i1 %46, label %_ZNK17arith_recognizers6is_intEPK4expr.exit11.thread.sink.split, label %_ZNK17arith_recognizers6is_intEPK4expr.exit11.thread

_ZNK17arith_recognizers6is_intEPK4expr.exit11.thread.sink.split: ; preds = %_ZNK17arith_recognizers7is_realEPK4expr.exit13, %_ZNK17arith_recognizers7is_realEPK4expr.exit
  %.sink = phi ptr [ %1, %_ZNK17arith_recognizers7is_realEPK4expr.exit ], [ %2, %_ZNK17arith_recognizers7is_realEPK4expr.exit13 ]
  %47 = load ptr, ptr %.sink, align 8, !tbaa !32
  %48 = load ptr, ptr %4, align 8, !tbaa !45
  %49 = tail call noundef ptr @_ZN11ast_manager6mk_appEiiP4expr(ptr noundef nonnull align 8 dereferenceable(976) %48, i32 noundef 5, i32 noundef 18, ptr noundef %47)
  store ptr %49, ptr %.sink, align 8, !tbaa !32
  br label %_ZNK17arith_recognizers6is_intEPK4expr.exit11.thread

_ZNK17arith_recognizers6is_intEPK4expr.exit11.thread: ; preds = %_ZNK17arith_recognizers6is_intEPK4expr.exit11.thread.sink.split, %36, %_ZNK4decl13get_family_idEv.exit.thread.i.i.i.i12, %_ZNK17arith_recognizers6is_intEPK4expr.exit.thread, %_ZNK4decl13get_family_idEv.exit.thread.i.i.i.i10, %_ZNK17arith_recognizers6is_intEPK4expr.exit11, %_ZNK17arith_recognizers7is_realEPK4expr.exit13
  ret void
}